target datalayout = "e-m:e-p270:32:32-p271:32:32-p272:64:64-i64:64-i128:128-f80:128-n8:16:32:64-S128"
target triple = "x86_64-pc-linux-gnu"

%struct.jpeg_compress_struct = type { ptr, ptr, ptr, ptr, i32, i32, ptr, i32, i32, i32, i32, double, i32, i32, i32, ptr, [4 x ptr], [4 x ptr], [4 x ptr], [16 x i8], [16 x i8], [16 x i8], i32, ptr, i32, i32, i32, i32, i32, i32, i32, i32, i32, i8, i8, i8, i16, i16, i32, i32, i32, i32, i32, i32, i32, [4 x ptr], i32, i32, i32, [10 x i32], i32, i32, i32, i32, ptr, ptr, ptr, ptr, ptr, ptr, ptr, ptr, ptr, ptr, i32 }
%struct.jpeg_component_info = type { i32, i32, i32, i32, i32, i32, i32, i32, i32, i32, i32, i32, i32, i32, i32, i32, i32, i32, i32, ptr, ptr }

@stderr = external global ptr, align 8
@.str.11 = private unnamed_addr constant [9 x i8] c"%d%c%d%c\00", align 1
@.str.12 = private unnamed_addr constant [36 x i8] c"JPEG sampling factors must be 1..4\0A\00", align 1

; Function Attrs: nounwind uwtable
define dso_local i32 @set_sample_factors(ptr noundef %0, ptr noundef %1) #0 {
  %3 = alloca i32, align 4
  %4 = alloca ptr, align 8
  %5 = alloca ptr, align 8
  %6 = alloca i32, align 4
  %7 = alloca i32, align 4
  %8 = alloca i32, align 4
  %9 = alloca i8, align 1
  %10 = alloca i8, align 1
  %11 = alloca i32, align 4
  store ptr %0, ptr %4, align 8, !tbaa !4
  store ptr %1, ptr %5, align 8, !tbaa !9
  call void @llvm.lifetime.start.p0(i64 4, ptr %6) #6
  call void @llvm.lifetime.start.p0(i64 4, ptr %7) #6
  call void @llvm.lifetime.start.p0(i64 4, ptr %8) #6
  call void @llvm.lifetime.start.p0(i64 1, ptr %9) #6
  call void @llvm.lifetime.start.p0(i64 1, ptr %10) #6
  store i32 0, ptr %6, align 4, !tbaa !11
  br label %12

12:                                               ; preds = %100, %2
  %13 = load i32, ptr %6, align 4, !tbaa !11
  %14 = icmp slt i32 %13, 10
  br i1 %14, label %15, label %103

15:                                               ; preds = %12
  %16 = load ptr, ptr %5, align 8, !tbaa !9
  %17 = load i8, ptr %16, align 1, !tbaa !60
  %18 = icmp ne i8 %17, 0
  br i1 %18, label %19, label %84

19:                                               ; preds = %15
  store i8 44, ptr %10, align 1, !tbaa !60
  %20 = load ptr, ptr %5, align 8, !tbaa !9
  %21 = call i32 (ptr, ptr, ...) @__isoc99_sscanf(ptr noundef %20, ptr noundef @.str.11, ptr noundef %7, ptr noundef %9, ptr noundef %8, ptr noundef %10) #6
  %22 = icmp slt i32 %21, 3
  br i1 %22, label %23, label %24

23:                                               ; preds = %19
  store i32 0, ptr %3, align 4
  store i32 1, ptr %11, align 4
  br label %104

24:                                               ; preds = %19
  %25 = load i8, ptr %9, align 1, !tbaa !60
  %26 = sext i8 %25 to i32
  %27 = icmp ne i32 %26, 120
  br i1 %27, label %28, label %32

28:                                               ; preds = %24
  %29 = load i8, ptr %9, align 1, !tbaa !60
  %30 = sext i8 %29 to i32
  %31 = icmp ne i32 %30, 88
  br i1 %31, label %36, label %32

32:                                               ; preds = %28, %24
  %33 = load i8, ptr %10, align 1, !tbaa !60
  %34 = sext i8 %33 to i32
  %35 = icmp ne i32 %34, 44
  br i1 %35, label %36, label %37

36:                                               ; preds = %32, %28
  store i32 0, ptr %3, align 4
  store i32 1, ptr %11, align 4
  br label %104

37:                                               ; preds = %32
  %38 = load i32, ptr %7, align 4, !tbaa !11
  %39 = icmp sle i32 %38, 0
  br i1 %39, label %49, label %40

40:                                               ; preds = %37
  %41 = load i32, ptr %7, align 4, !tbaa !11
  %42 = icmp sgt i32 %41, 4
  br i1 %42, label %49, label %43

43:                                               ; preds = %40
  %44 = load i32, ptr %8, align 4, !tbaa !11
  %45 = icmp sle i32 %44, 0
  br i1 %45, label %49, label %46

46:                                               ; preds = %43
  %47 = load i32, ptr %8, align 4, !tbaa !11
  %48 = icmp sgt i32 %47, 4
  br i1 %48, label %49, label %52

49:                                               ; preds = %46, %43, %40, %37
  %50 = load ptr, ptr @stderr, align 8, !tbaa !13
  %51 = call i32 (ptr, ptr, ...) @fprintf(ptr noundef %50, ptr noundef @.str.12) #6
  store i32 0, ptr %3, align 4
  store i32 1, ptr %11, align 4
  br label %104

52:                                               ; preds = %46
  %53 = load i32, ptr %7, align 4, !tbaa !11
  %54 = load ptr, ptr %4, align 8, !tbaa !4
  %55 = getelementptr inbounds nuw %struct.jpeg_compress_struct, ptr %54, i32 0, i32 15
  %56 = load ptr, ptr %55, align 8, !tbaa !63
  %57 = load i32, ptr %6, align 4, !tbaa !11
  %58 = sext i32 %57 to i64
  %59 = getelementptr inbounds %struct.jpeg_component_info, ptr %56, i64 %58
  %60 = getelementptr inbounds nuw %struct.jpeg_component_info, ptr %59, i32 0, i32 2
  store i32 %53, ptr %60, align 8, !tbaa !68
  %61 = load i32, ptr %8, align 4, !tbaa !11
  %62 = load ptr, ptr %4, align 8, !tbaa !4
  %63 = getelementptr inbounds nuw %struct.jpeg_compress_struct, ptr %62, i32 0, i32 15
  %64 = load ptr, ptr %63, align 8, !tbaa !63
  %65 = load i32, ptr %6, align 4, !tbaa !11
  %66 = sext i32 %65 to i64
  %67 = getelementptr inbounds %struct.jpeg_component_info, ptr %64, i64 %66
  %68 = getelementptr inbounds nuw %struct.jpeg_component_info, ptr %67, i32 0, i32 3
  store i32 %61, ptr %68, align 4, !tbaa !69
  br label %69

69:                                               ; preds = %82, %52
  %70 = load ptr, ptr %5, align 8, !tbaa !9
  %71 = load i8, ptr %70, align 1, !tbaa !60
  %72 = sext i8 %71 to i32
  %73 = icmp ne i32 %72, 0
  br i1 %73, label %74, label %80

74:                                               ; preds = %69
  %75 = load ptr, ptr %5, align 8, !tbaa !9
  %76 = getelementptr inbounds nuw i8, ptr %75, i32 1
  store ptr %76, ptr %5, align 8, !tbaa !9
  %77 = load i8, ptr %75, align 1, !tbaa !60
  %78 = sext i8 %77 to i32
  %79 = icmp ne i32 %78, 44
  br label %80

80:                                               ; preds = %74, %69
  %81 = phi i1 [ false, %69 ], [ %79, %74 ]
  br i1 %81, label %82, label %83

82:                                               ; preds = %80
  br label %69, !llvm.loop !70

83:                                               ; preds = %80
  br label %99

84:                                               ; preds = %15
  %85 = load ptr, ptr %4, align 8, !tbaa !4
  %86 = getelementptr inbounds nuw %struct.jpeg_compress_struct, ptr %85, i32 0, i32 15
  %87 = load ptr, ptr %86, align 8, !tbaa !63
  %88 = load i32, ptr %6, align 4, !tbaa !11
  %89 = sext i32 %88 to i64
  %90 = getelementptr inbounds %struct.jpeg_component_info, ptr %87, i64 %89
  %91 = getelementptr inbounds nuw %struct.jpeg_component_info, ptr %90, i32 0, i32 2
  store i32 1, ptr %91, align 8, !tbaa !68
  %92 = load ptr, ptr %4, align 8, !tbaa !4
  %93 = getelementptr inbounds nuw %struct.jpeg_compress_struct, ptr %92, i32 0, i32 15
  %94 = load ptr, ptr %93, align 8, !tbaa !63
  %95 = load i32, ptr %6, align 4, !tbaa !11
  %96 = sext i32 %95 to i64
  %97 = getelementptr inbounds %struct.jpeg_component_info, ptr %94, i64 %96
  %98 = getelementptr inbounds nuw %struct.jpeg_component_info, ptr %97, i32 0, i32 3
  store i32 1, ptr %98, align 4, !tbaa !69
  br label %99

99:                                               ; preds = %84, %83
  br label %100

100:                                              ; preds = %99
  %101 = load i32, ptr %6, align 4, !tbaa !11
  %102 = add nsw i32 %101, 1
  store i32 %102, ptr %6, align 4, !tbaa !11
  br label %12, !llvm.loop !71

103:                                              ; preds = %12
  store i32 1, ptr %3, align 4
  store i32 1, ptr %11, align 4
  br label %104

104:                                              ; preds = %103, %49, %36, %23
  call void @llvm.lifetime.end.p0(i64 1, ptr %10) #6
  call void @llvm.lifetime.end.p0(i64 1, ptr %9) #6
  call void @llvm.lifetime.end.p0(i64 4, ptr %8) #6
  call void @llvm.lifetime.end.p0(i64 4, ptr %7) #6
  call void @llvm.lifetime.end.p0(i64 4, ptr %6) #6
  %105 = load i32, ptr %3, align 4
  ret i32 %105
}