; Function Attrs: nofree nounwind uwtable
define dso_local range(i32 0, 2) i32 @set_sample_factors(ptr noundef readonly captures(none) %0, ptr noundef readonly captures(none) %1) local_unnamed_addr #3 {
  %3 = alloca i32, align 4
  %4 = alloca i32, align 4
  %5 = alloca i8, align 1
  %6 = alloca i8, align 1
  call void @llvm.lifetime.start.p0(i64 4, ptr nonnull %3) #8
  call void @llvm.lifetime.start.p0(i64 4, ptr nonnull %4) #8
  call void @llvm.lifetime.start.p0(i64 1, ptr nonnull %5) #8
  call void @llvm.lifetime.start.p0(i64 1, ptr nonnull %6) #8
  %7 = getelementptr inbounds nuw i8, ptr %0, i64 88
  br label %8

8:                                                ; preds = %2, %.critedge
  %indvars.iv = phi i64 [ 0, %2 ], [ %indvars.iv.next, %.critedge ]
  %.02531 = phi ptr [ %1, %2 ], [ %.2, %.critedge ]
  %9 = load i8, ptr %.02531, align 1, !tbaa !51
  %.not = icmp eq i8 %9, 0
  br i1 %.not, label %36, label %10

10:                                               ; preds = %8
  store i8 44, ptr %6, align 1, !tbaa !51
  %11 = call i32 (ptr, ptr, ...) @__isoc99_sscanf(ptr noundef nonnull %.02531, ptr noundef nonnull @.str.11, ptr noundef nonnull %3, ptr noundef nonnull %5, ptr noundef nonnull %4, ptr noundef nonnull %6) #8
  %12 = icmp slt i32 %11, 3
  br i1 %12, label %.loopexit, label %13

13:                                               ; preds = %10
  %14 = load i8, ptr %5, align 1, !tbaa !51
  %15 = and i8 %14, -33
  %or.cond = icmp ne i8 %15, 88
  %16 = load i8, ptr %6, align 1
  %17 = icmp ne i8 %16, 44
  %or.cond5 = select i1 %or.cond, i1 true, i1 %17
  br i1 %or.cond5, label %.loopexit, label %18

18:                                               ; preds = %13
  %19 = load i32, ptr %3, align 4, !tbaa !11
  %20 = add i32 %19, -5
  %or.cond7 = icmp ult i32 %20, -4
  %21 = load i32, ptr %4, align 4
  %22 = add i32 %21, -5
  %23 = icmp ult i32 %22, -4
  %or.cond11 = select i1 %or.cond7, i1 true, i1 %23
  br i1 %or.cond11, label %24, label %27

24:                                               ; preds = %18
  %25 = load ptr, ptr @stderr, align 8, !tbaa !4
  %26 = call i64 @fwrite(ptr nonnull @.str.12, i64 35, i64 1, ptr %25) #11
  br label %.loopexit

27:                                               ; preds = %18
  %28 = load ptr, ptr %7, align 8, !tbaa !54
  %29 = getelementptr inbounds nuw %struct.jpeg_component_info, ptr %28, i64 %indvars.iv, i32 2
  store i32 %19, ptr %29, align 8, !tbaa !59
  %30 = load i32, ptr %4, align 4, !tbaa !11
  %31 = getelementptr inbounds nuw %struct.jpeg_component_info, ptr %28, i64 %indvars.iv, i32 3
  store i32 %30, ptr %31, align 4, !tbaa !60
  br label %32

32:                                               ; preds = %34, %27
  %.1 = phi ptr [ %.02531, %27 ], [ %35, %34 ]
  %33 = load i8, ptr %.1, align 1, !tbaa !51
  %.not29 = icmp eq i8 %33, 0
  br i1 %.not29, label %.critedge, label %34

34:                                               ; preds = %32
  %35 = getelementptr inbounds nuw i8, ptr %.1, i64 1
  %.not30 = icmp eq i8 %33, 44
  br i1 %.not30, label %.critedge, label %32, !llvm.loop !61

36:                                               ; preds = %8
  %37 = load ptr, ptr %7, align 8, !tbaa !54
  %38 = getelementptr inbounds nuw %struct.jpeg_component_info, ptr %37, i64 %indvars.iv, i32 2
  store i32 1, ptr %38, align 8, !tbaa !59
  %39 = getelementptr inbounds nuw %struct.jpeg_component_info, ptr %37, i64 %indvars.iv, i32 3
  store i32 1, ptr %39, align 4, !tbaa !60
  br label %.critedge

.critedge:                                        ; preds = %32, %34, %36
  %.2 = phi ptr [ %.02531, %36 ], [ %.1, %32 ], [ %35, %34 ]
  %indvars.iv.next = add nuw nsw i64 %indvars.iv, 1
  %exitcond.not = icmp eq i64 %indvars.iv.next, 10
  br i1 %exitcond.not, label %.loopexit, label %8, !llvm.loop !62

.loopexit:                                        ; preds = %.critedge, %13, %10, %24
  %.026 = phi i32 [ 0, %24 ], [ 1, %.critedge ], [ 0, %13 ], [ 0, %10 ]
  call void @llvm.lifetime.end.p0(i64 1, ptr nonnull %6) #8
  call void @llvm.lifetime.end.p0(i64 1, ptr nonnull %5) #8
  call void @llvm.lifetime.end.p0(i64 4, ptr nonnull %4) #8
  call void @llvm.lifetime.end.p0(i64 4, ptr nonnull %3) #8
  ret i32 %.026
}